BL51 BANKED LINKER/LOCATER V6.22              06/11/2017  07:58:42  PAGE 1


BL51 BANKED LINKER/LOCATER V6.22, INVOKED BY:
C:\KEIL_V5\C51\BIN\BL51.EXE D:\projects\silab_lcd\main.obj, D:\projects\silab_
>> lcd\lcd.obj, D:\projects\silab_lcd\encoder.obj TO D:\projects\silab_lcd\tes
>> t RS (256) PL (68) PW (78)


MEMORY MODEL: SMALL


INPUT MODULES INCLUDED:
  D:\projects\silab_lcd\main.obj (MAIN)
  D:\projects\silab_lcd\lcd.obj (LCD)
  D:\projects\silab_lcd\encoder.obj (ENCODER)
  C:\KEIL_V5\C51\LIB\C51S.LIB (?C_STARTUP)
  C:\KEIL_V5\C51\LIB\C51S.LIB (?C?SLSHR)
  C:\KEIL_V5\C51\LIB\C51S.LIB (?C_INIT)


LINK MAP OF MODULE:  D:\projects\silab_lcd\test (MAIN)


            TYPE    BASE      LENGTH    RELOCATION   SEGMENT NAME
            -----------------------------------------------------

            * * * * * * *   D A T A   M E M O R Y   * * * * * * *
            REG     0000H     0008H     ABSOLUTE     "REG BANK 0"
            DATA    0008H     000FH     UNIT         _DATA_GROUP_
            DATA    0017H     000AH     UNIT         ?DT?MAIN
            DATA    0021H     0002H     UNIT         ?DT?_WRITE_DATA_16?LCD
            DATA    0023H     0002H     UNIT         ?DT?ENCODER
            IDATA   0025H     0001H     UNIT         ?STACK

            * * * * * * *   C O D E   M E M O R Y   * * * * * * *
            CODE    0000H     0003H     ABSOLUTE     
            CODE    0003H     0071H     UNIT         ?PR?ADC0_ISR?MAIN
            CODE    0074H     0007H     UNIT         ?PR?RESET_SOURCES_INIT?MA
>> IN
            CODE    007BH     0003H     ABSOLUTE     
            CODE    007EH     0096H     UNIT         ?PR?MAIN?MAIN
            CODE    0114H     008CH     UNIT         ?C_C51STARTUP
            CODE    01A0H     0053H     UNIT         ?PR?OSCILLATOR_INIT?MAIN
            CODE    01F3H     002FH     UNIT         ?PR?RESETLCD?LCD
            CODE    0222H     002FH     UNIT         ?PR?ENC_POLLENCODER?ENCOD
>> ER
            CODE    0251H     002EH     UNIT         ?PR?_WAIT_MS?MAIN
            CODE    027FH     002DH     UNIT         ?PR?CLEAR_LCD?LCD
            CODE    02ACH     002AH     UNIT         ?PR?__DELAY_US?LCD
            CODE    02D6H     0022H     UNIT         ?PR?_TIMER3_INIT?MAIN
            CODE    02F8H     0022H     UNIT         ?PR?INITIALIZELCD?LCD
            CODE    031AH     0020H     UNIT         ?PR?_WRITE_CHAR?LCD
            CODE    033AH     001AH     UNIT         ?PR?_WRITE_DATA_16?LCD
            CODE    0354H     0019H     UNIT         ?PR?PORT_IO_INIT?MAIN
            CODE    036DH     0019H     UNIT         ?PR?ADC0_INIT?MAIN
            CODE    0386H     0018H     UNIT         ?PR?TIMER_INIT?MAIN
            CODE    039EH     0014H     UNIT         ?C?LIB_CODE
            CODE    03B2H     000EH     UNIT         ?C_INITSEG
            CODE    03C0H     000DH     UNIT         ?PR?DAC_INIT?MAIN
            CODE    03CDH     000AH     UNIT         ?PR?_WRITE_COMMAND?LCD
            CODE    03D7H     000AH     UNIT         ?PR?_WRITE_DATA?LCD
            CODE    03E1H     0007H     UNIT         ?PR?SMBUS_INIT?MAIN
            CODE    03E8H     0007H     UNIT         ?PR?VOLTAGE_REFERENCE_INI
>> T?MAIN
            CODE    03EFH     0006H     UNIT         ?PR?ENC_GETSTATEENCODER?E
>> NCODER


BL51 BANKED LINKER/LOCATER V6.22            06/11/2017  07:58:42  PAGE 2



OVERLAY MAP OF MODULE:   D:\projects\silab_lcd\test (MAIN)


SEGMENT                                   DATA_GROUP 
  +--> CALLED SEGMENT                   START    LENGTH
-------------------------------------------------------
?C_C51STARTUP                           -----    -----
  +--> ?PR?MAIN?MAIN
  +--> ?C_INITSEG

?PR?MAIN?MAIN                           0008H    000DH
  +--> ?PR?RESET_SOURCES_INIT?MAIN
  +--> ?PR?SMBUS_INIT?MAIN
  +--> ?PR?DAC_INIT?MAIN
  +--> ?PR?VOLTAGE_REFERENCE_INIT?MAIN
  +--> ?PR?PORT_IO_INIT?MAIN
  +--> ?PR?OSCILLATOR_INIT?MAIN
  +--> ?PR?INITIALIZELCD?LCD
  +--> ?PR?_WRITE_CHAR?LCD
  +--> ?PR?_TIMER3_INIT?MAIN
  +--> ?PR?__DELAY_US?LCD
  +--> ?PR?ENC_POLLENCODER?ENCODER
  +--> ?PR?ENC_GETSTATEENCODER?ENCODER

?PR?INITIALIZELCD?LCD                   -----    -----
  +--> ?PR?__DELAY_US?LCD
  +--> ?PR?_WRITE_COMMAND?LCD

?PR?_WRITE_COMMAND?LCD                  -----    -----
  +--> ?PR?__DELAY_US?LCD

?PR?_WRITE_CHAR?LCD                     0015H    0002H
  +--> ?PR?_WRITE_COMMAND?LCD
  +--> ?PR?_WRITE_DATA?LCD

?PR?_WRITE_DATA?LCD                     -----    -----
  +--> ?PR?__DELAY_US?LCD



SYMBOL TABLE OF MODULE:  D:\projects\silab_lcd\test (MAIN)

  VALUE           TYPE          NAME
  ----------------------------------

  -------         MODULE        MAIN
  C:0000H         SYMBOL        _ICE_DUMMY_
  D:0080H         PUBLIC        P0
  D:0090H         PUBLIC        P1
  D:008FH         PUBLIC        PLL0FLT
  D:00FFH         PUBLIC        WDTCN
  D:001DH         PUBLIC        Result
  D:00BCH         PUBLIC        ADC0CF
  D:00B0H         PUBLIC        P3
  D:00E7H         PUBLIC        EIE2
  D:008EH         PUBLIC        PLL0MUL
  D:00E8H         PUBLIC        ADC0CN
  D:00D4H         PUBLIC        DAC0CN
  D:0084H         PUBLIC        SFRPAGE
  D:00D4H         PUBLIC        DAC1CN
  D:00A4H         PUBLIC        P0MDOUT
  D:00E8H         PUBLIC        ADC2CN
  D:00A5H         PUBLIC        P1MDOUT
  D:00A8H         PUBLIC        IE
BL51 BANKED LINKER/LOCATER V6.22            06/11/2017  07:58:42  PAGE 3


  D:00A6H         PUBLIC        P2MDOUT
  D:00A7H         PUBLIC        P3MDOUT
  D:00A1H         PUBLIC        CCH0CN
  C:0354H         PUBLIC        Port_IO_Init
  D:00D8H         PUBLIC        PCA0CN
  C:0251H         PUBLIC        _Wait_MS
  D:00B8H         PUBLIC        IP
  C:01A0H         PUBLIC        Oscillator_Init
  D:00E1H         PUBLIC        XBR0
  D:00E2H         PUBLIC        XBR1
  D:00E3H         PUBLIC        XBR2
  D:00D1H         PUBLIC        REF0CN
  D:00BAH         PUBLIC        AMX0CF
  B:00E8H.5       PUBLIC        AD0INT
  D:00CBH         PUBLIC        RCAP2H
  D:00C0H         PUBLIC        SMB0CN
  D:00CCH         PUBLIC        TMR2
  D:00CAH         PUBLIC        RCAP2L
  C:007EH         PUBLIC        main
  D:00CCH         PUBLIC        TMR3
  D:0088H         PUBLIC        CPT0CN
  D:0089H         PUBLIC        PLL0CN
  D:0088H         PUBLIC        CPT1CN
  C:02D6H         PUBLIC        _TIMER3_Init
  D:00F8H         PUBLIC        SPI0CN
  D:00C9H         PUBLIC        TMR2CF
  D:00C9H         PUBLIC        TMR3CF
  D:0089H         PUBLIC        TMOD
  D:0088H         PUBLIC        TCON
  B:00B0H.7       PUBLIC        LCDBLT
  D:00BBH         PUBLIC        AMX0SL
  D:00C8H         PUBLIC        TMR2CN
  D:00C8H         PUBLIC        TMR3CN
  D:00C8H         PUBLIC        TMR4CN
  C:03C0H         PUBLIC        DAC_Init
  D:0097H         PUBLIC        CLKSEL
  D:008AH         PUBLIC        OSCICN
  C:03E8H         PUBLIC        Voltage_Reference_Init
  C:03E1H         PUBLIC        SMBus_Init
  C:0074H         PUBLIC        Reset_Sources_Init
  C:0003H         PUBLIC        ADC0_ISR
  B:00A8H.5       PUBLIC        ET2
  B:00C8H.7       PUBLIC        TF2
  D:008DH         PUBLIC        TH1
  D:008CH         PUBLIC        OSCXCN
  D:0088H         PUBLIC        FLSTAT
  B:00C8H.2       PUBLIC        TR2
  D:00CAH         PUBLIC        RCAP2
  B:00C8H.2       PUBLIC        TR3
  D:00CAH         PUBLIC        RCAP3
  D:0098H         PUBLIC        SCON0
  D:0098H         PUBLIC        SCON1
  C:036DH         PUBLIC        ADC0_Init
  D:008EH         PUBLIC        CKCON
  D:00B7H         PUBLIC        FLSCL
  D:00BEH         PUBLIC        ADC0
  D:00D2H         PUBLIC        DAC0
  D:00D2H         PUBLIC        DAC1
  C:0386H         PUBLIC        Timer_Init
  D:00D0H         PUBLIC        PSW
  D:008DH         PUBLIC        PLL0DIV
  -------         PROC          RESET_SOURCES_INIT
  C:0074H         LINE#         20
  C:0074H         LINE#         21
  C:0074H         LINE#         22
BL51 BANKED LINKER/LOCATER V6.22            06/11/2017  07:58:42  PAGE 4


  C:0077H         LINE#         23
  C:007AH         LINE#         24
  -------         ENDPROC       RESET_SOURCES_INIT
  -------         PROC          TIMER_INIT
  C:0386H         LINE#         26
  C:0386H         LINE#         27
  C:0386H         LINE#         28
  C:0389H         LINE#         29
  C:038CH         LINE#         30
  C:038FH         LINE#         31
  C:0392H         LINE#         32
  C:0394H         LINE#         33
  C:0397H         LINE#         34
  C:039AH         LINE#         35
  C:039DH         LINE#         36
  -------         ENDPROC       TIMER_INIT
  -------         PROC          SMBUS_INIT
  C:03E1H         LINE#         40
  C:03E1H         LINE#         41
  C:03E1H         LINE#         42
  C:03E4H         LINE#         43
  C:03E7H         LINE#         44
  -------         ENDPROC       SMBUS_INIT
  -------         PROC          DAC_INIT
  C:03C0H         LINE#         46
  C:03C0H         LINE#         47
  C:03C0H         LINE#         48
  C:03C3H         LINE#         49
  C:03C6H         LINE#         50
  C:03C9H         LINE#         51
  C:03CCH         LINE#         52
  -------         ENDPROC       DAC_INIT
  -------         PROC          VOLTAGE_REFERENCE_INIT
  C:03E8H         LINE#         54
  C:03E8H         LINE#         55
  C:03E8H         LINE#         56
  C:03EBH         LINE#         57
  C:03EEH         LINE#         58
  -------         ENDPROC       VOLTAGE_REFERENCE_INIT
  -------         PROC          PORT_IO_INIT
  C:0354H         LINE#         60
  C:0354H         LINE#         61
  C:0354H         LINE#         98
  C:0357H         LINE#         99
  C:035AH         LINE#         100
  C:035DH         LINE#         101
  C:0360H         LINE#         102
  C:0363H         LINE#         103
  C:0366H         LINE#         104
  C:0369H         LINE#         105
  C:036CH         LINE#         106
  -------         ENDPROC       PORT_IO_INIT
  -------         PROC          OSCILLATOR_INIT
  -------         DO            
  D:0006H         SYMBOL        i
  -------         ENDDO         
  C:01A0H         LINE#         108
  C:01A0H         LINE#         109
  C:01A0H         LINE#         110
  C:01A3H         LINE#         111
  C:01A6H         LINE#         112
  C:01A9H         LINE#         113
  C:01B4H         LINE#         114
  C:01B9H         LINE#         115
  C:01BCH         LINE#         116
BL51 BANKED LINKER/LOCATER V6.22            06/11/2017  07:58:42  PAGE 5


  C:01BFH         LINE#         117
  C:01C2H         LINE#         118
  C:01C5H         LINE#         119
  C:01C8H         LINE#         120
  C:01CBH         LINE#         121
  C:01CEH         LINE#         122
  C:01D1H         LINE#         123
  C:01D4H         LINE#         124
  C:01D7H         LINE#         125
  C:01E4H         LINE#         126
  C:01E7H         LINE#         127
  C:01ECH         LINE#         128
  C:01EFH         LINE#         129
  C:01F2H         LINE#         130
  -------         ENDPROC       OSCILLATOR_INIT
  -------         PROC          ADC0_INIT
  -------         DO            
  D:0007H         SYMBOL        SFRPAGE_SAVE
  -------         ENDDO         
  C:036DH         LINE#         144
  C:036DH         LINE#         145
  C:036DH         LINE#         146
  C:036FH         LINE#         148
  C:0372H         LINE#         150
  C:0375H         LINE#         155
  C:0378H         LINE#         158
  C:037AH         LINE#         160
  C:037DH         LINE#         162
  C:0380H         LINE#         163
  C:0380H         LINE#         165
  C:0383H         LINE#         167
  C:0385H         LINE#         168
  -------         ENDPROC       ADC0_INIT
  -------         PROC          _TIMER3_INIT
  D:0006H         SYMBOL        counts
  -------         DO            
  D:0005H         SYMBOL        SFRPAGE_SAVE
  -------         ENDDO         
  C:02D6H         LINE#         183
  C:02D6H         LINE#         184
  C:02D6H         LINE#         185
  C:02D8H         LINE#         187
  C:02DBH         LINE#         189
  C:02DEH         LINE#         190
  C:02E1H         LINE#         192
  C:02EAH         LINE#         193
  C:02F0H         LINE#         194
  C:02F3H         LINE#         195
  C:02F5H         LINE#         197
  C:02F7H         LINE#         198
  -------         ENDPROC       _TIMER3_INIT
  -------         PROC          _WAIT_MS
  D:0006H         SYMBOL        ms
  -------         DO            
  D:0005H         SYMBOL        SFRPAGE_SAVE
  -------         ENDDO         
  C:0251H         LINE#         212
  C:0251H         LINE#         213
  C:0251H         LINE#         214
  C:0253H         LINE#         216
  C:0256H         LINE#         218
  C:0258H         LINE#         219
  C:025AH         LINE#         221
  C:0260H         LINE#         222
  C:0266H         LINE#         224
BL51 BANKED LINKER/LOCATER V6.22            06/11/2017  07:58:42  PAGE 6


  C:0268H         LINE#         226
  C:026AH         LINE#         228
  C:026EH         LINE#         229
  C:026EH         LINE#         230
  C:0270H         LINE#         231
  C:0273H         LINE#         232
  C:0278H         LINE#         233
  C:027AH         LINE#         235
  C:027CH         LINE#         237
  C:027EH         LINE#         238
  -------         ENDPROC       _WAIT_MS
  -------         PROC          MAIN
  -------         DO            
  D:0008H         SYMBOL        i
  D:000AH         SYMBOL        encspin
  D:000CH         SYMBOL        v
  D:0010H         SYMBOL        a
  D:0014H         SYMBOL        SFRPAGE_SAVE
  -------         ENDDO         
  C:007EH         LINE#         12
  C:007EH         LINE#         15
  C:0081H         LINE#         16
  C:0084H         LINE#         18
  C:0087H         LINE#         19
  C:008AH         LINE#         20
  C:008DH         LINE#         21
  C:0090H         LINE#         22
  C:0093H         LINE#         24
  C:0095H         LINE#         26
  C:0098H         LINE#         28
  C:009BH         LINE#         29
  C:00A0H         LINE#         31
  C:00A3H         LINE#         32
  C:00A9H         LINE#         34
  C:00ACH         LINE#         37
  C:00AEH         LINE#         40
  C:00B4H         LINE#         45
  C:00BBH         LINE#         50
  C:00C2H         LINE#         51
  C:00C9H         LINE#         56
  C:00D0H         LINE#         61
  C:00D7H         LINE#         62
  C:00DEH         LINE#         68
  C:00E5H         LINE#         71
  C:00E5H         LINE#         73
  C:00ECH         LINE#         74
  C:00F2H         LINE#         75
  C:00FAH         LINE#         76
  C:00FAH         LINE#         77
  C:0102H         LINE#         78
  C:0109H         LINE#         79
  C:010BH         LINE#         80
  C:0112H         LINE#         81
  C:0112H         LINE#         83
  -------         ENDPROC       MAIN
  -------         PROC          ADC0_ISR
  -------         DO            
  D:0017H         SYMBOL        int_dec
  D:0019H         SYMBOL        accumulator
  -------         ENDDO         
  C:0003H         LINE#         101
  C:0014H         LINE#         109
  C:0016H         LINE#         112
  C:0031H         LINE#         114
  C:0039H         LINE#         116
BL51 BANKED LINKER/LOCATER V6.22            06/11/2017  07:58:42  PAGE 7


  C:003FH         LINE#         117
  C:003FH         LINE#         118
  C:0044H         LINE#         119
  C:0059H         LINE#         120
  C:0065H         LINE#         121
  C:0065H         LINE#         122
  -------         ENDPROC       ADC0_ISR
  -------         ENDMOD        MAIN

  -------         MODULE        LCD
  C:0000H         SYMBOL        _ICE_DUMMY_
  D:0080H         PUBLIC        P0
  D:0090H         PUBLIC        P1
  D:00A0H         PUBLIC        P2
  D:00B0H         PUBLIC        P3
  D:00E8H         PUBLIC        ADC0CN
  D:00E8H         PUBLIC        ADC2CN
  D:00A8H         PUBLIC        IE
  D:00D8H         PUBLIC        PCA0CN
  D:00B8H         PUBLIC        IP
  C:027FH         PUBLIC        Clear_LCD
  D:00C0H         PUBLIC        SMB0CN
  D:0088H         PUBLIC        CPT0CN
  C:03D7H         PUBLIC        _write_data
  D:0088H         PUBLIC        CPT1CN
  D:00F8H         PUBLIC        SPI0CN
  D:0088H         PUBLIC        TCON
  D:00C8H         PUBLIC        TMR2CN
  D:00C8H         PUBLIC        TMR3CN
  D:00C8H         PUBLIC        TMR4CN
  C:02B6H         PUBLIC        __delay_us
  B:0090H.0       PUBLIC        LCD_DI
  B:0090H.2       PUBLIC        LCD_EN
  B:0090H.3       PUBLIC        LCDRST
  D:0088H         PUBLIC        FLSTAT
  C:01F3H         PUBLIC        ResetLCD
  B:0090H.1       PUBLIC        LCD_RW
  D:0098H         PUBLIC        SCON0
  D:0098H         PUBLIC        SCON1
  C:02F8H         PUBLIC        InitializeLCD
  C:031AH         PUBLIC        _Write_Char
  C:033AH         PUBLIC        _write_data_16
  C:03CDH         PUBLIC        _write_command
  D:00D0H         PUBLIC        PSW
  -------         PROC          _WRITE_COMMAND
  D:0007H         SYMBOL        ldata
  C:03CDH         LINE#         8
  C:03CDH         LINE#         9
  C:03CDH         LINE#         10
  C:03CFH         LINE#         11
  C:03D1H         LINE#         12
  C:03D1H         LINE#         13
  C:03D1H         LINE#         14
  C:03D1H         LINE#         15
  C:03D4H         LINE#         16
  C:03D6H         LINE#         17
  -------         ENDPROC       _WRITE_COMMAND
  -------         PROC          _WRITE_DATA
  D:0007H         SYMBOL        ldata
  C:03D7H         LINE#         19
  C:03D7H         LINE#         20
  C:03D7H         LINE#         21
  C:03D9H         LINE#         22
  C:03DBH         LINE#         23
  C:03DBH         LINE#         24
BL51 BANKED LINKER/LOCATER V6.22            06/11/2017  07:58:42  PAGE 8


  C:03DBH         LINE#         25
  C:03DBH         LINE#         26
  C:03DEH         LINE#         27
  C:03E0H         LINE#         28
  -------         ENDPROC       _WRITE_DATA
  -------         PROC          _WRITE_DATA_16
  D:0021H         SYMBOL        ldata
  C:033AH         LINE#         30
  C:033EH         LINE#         31
  C:033EH         LINE#         32
  C:0342H         LINE#         34
  C:0344H         LINE#         35
  C:0346H         LINE#         36
  C:0346H         LINE#         37
  C:0346H         LINE#         38
  C:0349H         LINE#         39
  C:034BH         LINE#         40
  C:034EH         LINE#         41
  C:034EH         LINE#         42
  C:0351H         LINE#         43
  C:0353H         LINE#         44
  -------         ENDPROC       _WRITE_DATA_16
  -------         PROC          CLEAR_LCD
  C:027FH         LINE#         46
  C:027FH         LINE#         47
  C:027FH         LINE#         48
  C:0284H         LINE#         49
  C:0289H         LINE#         50
  C:028EH         LINE#         51
  C:0293H         LINE#         52
  C:0298H         LINE#         53
  C:029DH         LINE#         54
  C:02A2H         LINE#         56
  C:02A7H         LINE#         57
  -------         ENDPROC       CLEAR_LCD
  -------         PROC          _WRITE_CHAR
  D:0015H         SYMBOL        pos
  D:0016H         SYMBOL        ldata
  C:031AH         LINE#         62
  C:031EH         LINE#         63
  C:031EH         LINE#         64
  C:0323H         LINE#         65
  C:0328H         LINE#         66
  C:032DH         LINE#         67
  C:0335H         LINE#         68
  -------         ENDPROC       _WRITE_CHAR
  -------         PROC          RESETLCD
  C:01F3H         LINE#         71
  C:01F3H         LINE#         72
  C:01F3H         LINE#         73
  C:01F5H         LINE#         74
  C:01FCH         LINE#         75
  C:0203H         LINE#         76
  C:020AH         LINE#         77
  C:0211H         LINE#         78
  C:0218H         LINE#         79
  C:021FH         LINE#         80
  C:0221H         LINE#         81
  -------         ENDPROC       RESETLCD
  -------         PROC          INITIALIZELCD
  C:02F8H         LINE#         84
  C:02F8H         LINE#         85
  C:02F8H         LINE#         88
  C:02FAH         LINE#         90
  C:0301H         LINE#         93
BL51 BANKED LINKER/LOCATER V6.22            06/11/2017  07:58:42  PAGE 9


  C:0306H         LINE#         94
  C:030BH         LINE#         95
  C:0310H         LINE#         96
  C:0315H         LINE#         97
  -------         ENDPROC       INITIALIZELCD
  C:02AEH         SYMBOL        L?0017
  C:02B0H         SYMBOL        L?0018
  -------         PROC          L?0016
  -------         ENDPROC       L?0016
  C:02AEH         SYMBOL        L?0017
  C:02B0H         SYMBOL        L?0018
  -------         PROC          __DELAY_US
  D:0006H         SYMBOL        ms
  -------         DO            
  D:0004H         SYMBOL        i
  -------         ENDDO         
  C:02B6H         LINE#         103
  C:02B6H         LINE#         104
  C:02B6H         LINE#         106
  C:02C1H         LINE#         107
  C:02CEH         LINE#         108
  C:02D3H         LINE#         109
  C:02D5H         LINE#         110
  -------         ENDPROC       __DELAY_US
  -------         ENDMOD        LCD

  -------         MODULE        ENCODER
  C:0000H         SYMBOL        _ICE_DUMMY_
  D:0080H         PUBLIC        P0
  D:0090H         PUBLIC        P1
  D:00B0H         PUBLIC        P3
  D:00E8H         PUBLIC        ADC0CN
  D:00E8H         PUBLIC        ADC2CN
  D:00A8H         PUBLIC        IE
  C:0222H         PUBLIC        ENC_PollEncoder
  D:00D8H         PUBLIC        PCA0CN
  D:00B8H         PUBLIC        IP
  C:03EFH         PUBLIC        ENC_GetStateEncoder
  D:00C0H         PUBLIC        SMB0CN
  D:0088H         PUBLIC        CPT0CN
  D:0088H         PUBLIC        CPT1CN
  D:00F8H         PUBLIC        SPI0CN
  D:0088H         PUBLIC        TCON
  D:00C8H         PUBLIC        TMR2CN
  D:00C8H         PUBLIC        TMR3CN
  D:00C8H         PUBLIC        TMR4CN
  D:0088H         PUBLIC        FLSTAT
  D:0024H         PUBLIC        bufEnc
  D:0098H         PUBLIC        SCON0
  D:0098H         PUBLIC        SCON1
  B:00B0H.0       PUBLIC        ENC_A
  B:00B0H.1       PUBLIC        ENC_C
  D:00D0H         PUBLIC        PSW
  -------         PROC          ENC_POLLENCODER
  -------         DO            
  D:0023H         SYMBOL        stateEnc
  D:0006H         SYMBOL        tmp
  D:0007H         SYMBOL        currentState
  -------         ENDDO         
  C:0222H         LINE#         12
  C:0222H         LINE#         13
  C:0222H         LINE#         16
  C:0224H         LINE#         19
  C:0228H         LINE#         20
  C:022EH         LINE#         23
BL51 BANKED LINKER/LOCATER V6.22            06/11/2017  07:58:42  PAGE 10


  C:0230H         LINE#         24
  C:0239H         LINE#         27
  C:0240H         LINE#         28
  C:0242H         LINE#         31
  C:0248H         LINE#         32
  C:024EH         LINE#         33
  C:0250H         LINE#         34
  -------         ENDPROC       ENC_POLLENCODER
  -------         PROC          ENC_GETSTATEENCODER
  -------         DO            
  D:0007H         SYMBOL        tmp
  -------         ENDDO         
  C:03EFH         LINE#         38
  C:03EFH         LINE#         39
  C:03EFH         LINE#         40
  C:03F1H         LINE#         41
  C:03F4H         LINE#         42
  C:03F4H         LINE#         43
  -------         ENDPROC       ENC_GETSTATEENCODER
  -------         ENDMOD        ENCODER

  -------         MODULE        ?C?SLSHR
  C:039EH         PUBLIC        ?C?SLSHR
  -------         ENDMOD        ?C?SLSHR

*** WARNING L16: UNCALLED SEGMENT, IGNORED FOR OVERLAY PROCESS
    SEGMENT: ?PR?TIMER_INIT?MAIN

*** WARNING L16: UNCALLED SEGMENT, IGNORED FOR OVERLAY PROCESS
    SEGMENT: ?PR?ADC0_INIT?MAIN

*** WARNING L16: UNCALLED SEGMENT, IGNORED FOR OVERLAY PROCESS
    SEGMENT: ?PR?_WAIT_MS?MAIN

*** WARNING L16: UNCALLED SEGMENT, IGNORED FOR OVERLAY PROCESS
    SEGMENT: ?PR?_WRITE_DATA_16?LCD

*** WARNING L16: UNCALLED SEGMENT, IGNORED FOR OVERLAY PROCESS
    SEGMENT: ?PR?CLEAR_LCD?LCD

*** WARNING L16: UNCALLED SEGMENT, IGNORED FOR OVERLAY PROCESS
    SEGMENT: ?PR?RESETLCD?LCD

Program Size: data=38.0 xdata=0 code=1013
LINK/LOCATE RUN COMPLETE.  6 WARNING(S),  0 ERROR(S)
